; Function Attrs: mustprogress nounwind uwtable
define internal fastcc void @_ZNSt10unique_ptrIN12_GLOBAL__N_119cmDependInformationESt14default_deleteIS1_EED2Ev(ptr noundef nonnull align 8 captures(none) dereferenceable(8) %0) unnamed_addr #5 align 2 personality ptr @__gxx_personality_v0 {
  %2 = load ptr, ptr %0, align 8
  %.not = icmp eq ptr %2, null
  br i1 %.not, label %7, label %_ZNKSt14default_deleteIN12_GLOBAL__N_119cmDependInformationEEclEPS1_.exit

_ZNKSt14default_deleteIN12_GLOBAL__N_119cmDependInformationEEclEPS1_.exit: ; preds = %1
  %3 = getelementptr inbounds nuw i8, ptr %2, i64 128
  tail call void @_ZNSt7__cxx1112basic_stringIcSt11char_traitsIcESaIcEED1Ev(ptr noundef nonnull align 8 dereferenceable(32) %3) #20
  %4 = getelementptr inbounds nuw i8, ptr %2, i64 96
  tail call void @_ZNSt7__cxx1112basic_stringIcSt11char_traitsIcESaIcEED1Ev(ptr noundef nonnull align 8 dereferenceable(32) %4) #20
  %5 = getelementptr inbounds nuw i8, ptr %2, i64 64
  tail call void @_ZNSt7__cxx1112basic_stringIcSt11char_traitsIcESaIcEED1Ev(ptr noundef nonnull align 8 dereferenceable(32) %5) #20
  %6 = getelementptr inbounds nuw i8, ptr %2, i64 16
  %.val.i.i = load ptr, ptr %6, align 8
  tail call fastcc void @_ZNSt8_Rb_treeIPN12_GLOBAL__N_119cmDependInformationES2_St9_IdentityIS2_ESt4lessIS2_ESaIS2_EE8_M_eraseEPSt13_Rb_tree_nodeIS2_E(ptr noundef %.val.i.i)
  tail call void @_ZdlPv(ptr noundef nonnull %2) #21
  br label %7

7:                                                ; preds = %_ZNKSt14default_deleteIN12_GLOBAL__N_119cmDependInformationEEclEPS1_.exit, %1
  store ptr null, ptr %0, align 8
  ret void
}